; Function Attrs: mustprogress nofree norecurse nosync nounwind willreturn memory(readwrite, inaccessiblemem: none) uwtable
define hidden void @_ZN9Assembler6vdivpsE11XMMRegisterS0_S0_i(ptr noundef nonnull align 8 dereferenceable(40) %0, i32 %1, i32 %2, i32 %3, i32 noundef %4) local_unnamed_addr #8 align 2 {
  %6 = alloca %class.InstructionAttr, align 8
  store i8 0, ptr %6, align 8
  %7 = getelementptr inbounds i8, ptr %6, i64 1
  %8 = load i32, ptr @UseAVX, align 4
  %9 = icmp slt i32 %8, 3
  %10 = zext i1 %9 to i8
  store i8 %10, ptr %7, align 1
  %11 = getelementptr inbounds i8, ptr %6, i64 2
  store <4 x i8> <i8 1, i8 1, i8 0, i8 0>, ptr %11, align 2
  %12 = getelementptr inbounds i8, ptr %6, i64 6
  store i8 1, ptr %12, align 2
  %13 = getelementptr inbounds i8, ptr %6, i64 7
  store i8 0, ptr %13, align 1
  %14 = getelementptr inbounds i8, ptr %6, i64 8
  store i32 %4, ptr %14, align 8
  %15 = getelementptr inbounds i8, ptr %6, i64 12
  store <4 x i32> <i32 24, i32 4, i32 0, i32 0>, ptr %15, align 4
  %16 = getelementptr inbounds i8, ptr %6, i64 32
  store ptr null, ptr %16, align 8
  %17 = sext i32 %1 to i64
  %18 = getelementptr inbounds %"class.XMMRegister::XMMRegisterImpl", ptr getelementptr inbounds (i8, ptr @all_XMMRegisterImpls, i64 1), i64 %17
  %19 = ptrtoint ptr %18 to i64
  %20 = trunc i64 %19 to i32
  %21 = sub i32 %20, ptrtoint (ptr getelementptr inbounds (i8, ptr @all_XMMRegisterImpls, i64 1) to i32)
  %22 = sext i32 %2 to i64
  %23 = getelementptr inbounds %"class.XMMRegister::XMMRegisterImpl", ptr getelementptr inbounds (i8, ptr @all_XMMRegisterImpls, i64 1), i64 %22
  %24 = ptrtoint ptr %23 to i64
  %25 = trunc i64 %24 to i32
  %26 = sub i32 %25, ptrtoint (ptr getelementptr inbounds (i8, ptr @all_XMMRegisterImpls, i64 1) to i32)
  %27 = sext i32 %3 to i64
  %28 = getelementptr inbounds %"class.XMMRegister::XMMRegisterImpl", ptr getelementptr inbounds (i8, ptr @all_XMMRegisterImpls, i64 1), i64 %27
  %29 = ptrtoint ptr %28 to i64
  %30 = trunc i64 %29 to i32
  %31 = sub i32 %30, ptrtoint (ptr getelementptr inbounds (i8, ptr @all_XMMRegisterImpls, i64 1) to i32)
  %32 = call noundef i32 @_ZN9Assembler21vex_prefix_and_encodeEiiiNS_13VexSimdPrefixENS_9VexOpcodeEP15InstructionAttrb(ptr noundef nonnull align 8 dereferenceable(40) %0, i32 noundef %21, i32 noundef %26, i32 noundef %31, i32 noundef 0, i32 noundef 1, ptr noundef nonnull %6, i1 noundef zeroext false)
  %33 = getelementptr inbounds i8, ptr %0, i64 8
  %34 = load ptr, ptr %33, align 8
  %35 = trunc nuw nsw i32 %32 to i8
  %.0.i2.i = or disjoint i8 %35, -64
  %36 = getelementptr inbounds i8, ptr %34, i64 16
  %37 = load ptr, ptr %36, align 8
  %38 = getelementptr inbounds i8, ptr %37, i64 1
  store i8 94, ptr %37, align 1
  %39 = getelementptr inbounds i8, ptr %37, i64 2
  store i8 %.0.i2.i, ptr %38, align 1
  store ptr %39, ptr %36, align 8
  %40 = load ptr, ptr %16, align 8
  %.not.i = icmp eq ptr %40, null
  br i1 %.not.i, label %_ZN15InstructionAttrD2Ev.exit, label %41

41:                                               ; preds = %5
  %42 = getelementptr inbounds i8, ptr %40, i64 32
  store ptr null, ptr %42, align 8
  br label %_ZN15InstructionAttrD2Ev.exit

_ZN15InstructionAttrD2Ev.exit:                    ; preds = %5, %41
  ret void
}